Certificate:
    Data:
        Version: 3 (0x2)
        Serial Number: 1 (0x1)
        Signature Algorithm: sha256WithRSAEncryption
        Issuer: CN=ScandiPWA Certificate Authority, ST=LV, C=LV/emailAddress=developer@local.scandipwa, O=WorksOnMyLocal, OU=Development
        Validity
            Not Before: Feb  7 16:18:35 2020 GMT
            Not After : Feb  4 16:18:35 2030 GMT
        Subject: CN=*.dev, ST=LV, C=LV/emailAddress=developer@local.scandipwa, O=WorksOnMyLocal, OU=Development
        Subject Public Key Info:
            Public Key Algorithm: rsaEncryption
                RSA Public-Key: (2048 bit)
                Modulus:
                    00:c4:33:f9:b4:aa:cc:f7:e1:d3:d7:cd:ab:66:f1:
                    02:d1:ad:23:ef:8c:28:58:82:9e:af:0e:1e:32:33:
                    c5:c2:3b:a2:1f:98:a4:d8:fe:79:17:51:4a:43:77:
                    e7:d0:dd:9f:95:d9:fc:a2:d6:64:be:fc:a6:8b:d8:
                    ae:a9:92:3a:e5:38:98:ed:6e:32:ba:6e:76:3c:37:
                    f1:79:c0:be:7f:c5:a8:dc:85:60:61:84:28:31:f0:
                    e0:bf:32:d4:6d:ec:d6:e1:dc:c5:8a:28:7a:b8:ef:
                    e5:c6:3d:15:51:01:69:74:43:89:ee:0a:ea:73:2a:
                    f4:14:b1:08:da:de:de:63:ff:c4:68:ae:52:7f:bd:
                    2e:d0:b2:18:dc:38:da:da:67:2e:7c:f4:b2:c3:6b:
                    c5:b4:54:62:4f:99:fe:3d:4a:31:d6:96:70:1e:72:
                    b1:4e:81:b5:b2:b4:f3:fa:39:08:b3:ba:81:58:93:
                    cb:0e:cb:a6:37:0a:21:c6:f2:f1:e2:50:50:86:9f:
                    22:93:77:da:5b:6e:7d:8b:4e:0a:d0:a0:a6:87:fc:
                    19:50:7e:54:4d:5a:3a:cc:80:2b:09:85:3b:58:fd:
                    00:f0:2d:1e:a4:34:cc:53:35:d9:c9:de:1a:ab:49:
                    cd:48:3a:e8:21:6a:40:71:68:0d:95:a0:df:ae:8e:
                    3c:2d
                Exponent: 65537 (0x10001)
        X509v3 extensions:
            X509v3 Basic Constraints: 
                CA:FALSE
            X509v3 Key Usage: 
                Digital Signature, Non Repudiation, Key Encipherment
            X509v3 Subject Alternative Name: 
                DNS:*.local, DNS:scandipwa.local, DNS:localhost, DNS:*.dev, DNS:scandipwa.dev, IP Address:127.0.0.1
    Signature Algorithm: sha256WithRSAEncryption
         b2:8e:c7:79:42:78:9a:ae:4e:d8:09:e2:9f:41:19:10:b0:79:
         0d:14:2a:6b:66:c2:1d:28:a3:dc:74:3b:e8:c2:87:a4:97:09:
         b9:a7:df:6c:e6:38:e1:fc:54:ea:96:02:15:5e:08:92:57:4c:
         06:6e:a2:59:4e:8f:e8:ef:ba:f2:eb:01:1a:88:0d:da:dd:63:
         7b:ad:5a:9d:73:e0:29:4a:84:1c:81:97:d2:9e:8d:e3:0a:6b:
         8a:9c:ea:81:5a:2e:aa:f5:7a:38:73:bf:f5:a4:fc:45:85:94:
         90:e8:fa:b6:1d:84:68:49:b5:85:52:c7:52:81:21:74:bd:2f:
         95:af:62:8e:83:48:1c:2e:a1:39:5f:ca:f6:69:40:d6:28:61:
         4d:51:d0:22:51:6c:67:b8:7b:20:2e:86:5a:96:97:4d:1b:af:
         e5:93:60:20:2a:aa:19:1b:f1:96:13:2d:8a:f4:59:db:ce:eb:
         cd:0b:87:7a:a5:ee:22:83:68:72:b6:a9:16:c5:de:78:c5:bc:
         21:00:88:d0:2d:2c:f0:42:2e:50:cd:0e:03:7c:d2:15:d0:09:
         69:10:0d:f8:2d:b6:da:11:db:82:d9:9e:7c:b5:52:85:be:18:
         53:cf:ff:77:d5:74:e8:3c:c1:df:df:8f:5a:45:90:ce:e5:6c:
         22:e9:d9:0a
-----BEGIN CERTIFICATE-----
MIIEAzCCAuugAwIBAgIBATANBgkqhkiG9w0BAQsFADCBnTEoMCYGA1UEAwwfU2Nh
bmRpUFdBIENlcnRpZmljYXRlIEF1dGhvcml0eTELMAkGA1UECAwCTFYxCzAJBgNV
BAYTAkxWMSgwJgYJKoZIhvcNAQkBFhlkZXZlbG9wZXJAbG9jYWwuc2NhbmRpcHdh
MRcwFQYDVQQKDA5Xb3Jrc09uTXlMb2NhbDEUMBIGA1UECwwLRGV2ZWxvcG1lbnQw
HhcNMjAwMjA3MTYxODM1WhcNMzAwMjA0MTYxODM1WjCBgzEOMAwGA1UEAwwFKi5k
ZXYxCzAJBgNVBAgMAkxWMQswCQYDVQQGEwJMVjEoMCYGCSqGSIb3DQEJARYZZGV2
ZWxvcGVyQGxvY2FsLnNjYW5kaXB3YTEXMBUGA1UECgwOV29ya3NPbk15TG9jYWwx
FDASBgNVBAsMC0RldmVsb3BtZW50MIIBIjANBgkqhkiG9w0BAQEFAAOCAQ8AMIIB
CgKCAQEAxDP5tKrM9+HT182rZvEC0a0j74woWIKerw4eMjPFwjuiH5ik2P55F1FK
Q3fn0N2fldn8otZkvvymi9iuqZI65TiY7W4yum52PDfxecC+f8Wo3IVgYYQoMfDg
vzLUbezW4dzFiih6uO/lxj0VUQFpdEOJ7grqcyr0FLEI2t7eY//EaK5Sf70u0LIY
3Dja2mcufPSyw2vFtFRiT5n+PUox1pZwHnKxToG1srTz+jkIs7qBWJPLDsumNwoh
xvLx4lBQhp8ik3faW259i04K0KCmh/wZUH5UTVo6zIArCYU7WP0A8C0epDTMUzXZ
yd4aq0nNSDroIWpAcWgNlaDfro48LQIDAQABo2YwZDAJBgNVHRMEAjAAMAsGA1Ud
DwQEAwIF4DBKBgNVHREEQzBBggcqLmxvY2Fsgg9zY2FuZGlwd2EubG9jYWyCCWxv
Y2FsaG9zdIIFKi5kZXaCDXNjYW5kaXB3YS5kZXaHBH8AAAEwDQYJKoZIhvcNAQEL
BQADggEBALKOx3lCeJquTtgJ4p9BGRCweQ0UKmtmwh0oo9x0O+jCh6SXCbmn32zm
OOH8VOqWAhVeCJJXTAZuollOj+jvuvLrARqIDdrdY3utWp1z4ClKhByBl9KejeMK
a4qc6oFaLqr1ejhzv/Wk/EWFlJDo+rYdhGhJtYVSx1KBIXS9L5WvYo6DSBwuoTlf
yvZpQNYoYU1R0CJRbGe4eyAuhlqWl00br+WTYCAqqhkb8ZYTLYr0WdvO680Lh3ql
7iKDaHK2qRbF3njFvCEAiNAtLPBCLlDNDgN80hXQCWkQDfgtttoR24LZnny1UoW+
GFPP/3fVdOg8wd/fj1pFkM7lbCLp2Qo=
-----END CERTIFICATE-----
